; ModuleID = '3/1370.c'
source_filename = "3/1370.c"
target datalayout = "e-m:e-p270:32:32-p271:32:32-p272:64:64-i64:64-f80:128-n8:16:32:64-S128"
target triple = "x86_64-pc-linux-gnu"

@.str = private unnamed_addr constant [6 x i8] c"%d %d\00", align 1
@.str.1 = private unnamed_addr constant [3 x i8] c"%d\00", align 1
@.str.2 = private unnamed_addr constant [3 x i8] c"no\00", align 1
@.str.3 = private unnamed_addr constant [4 x i8] c"yes\00", align 1

; Function Attrs: noinline nounwind uwtable
define dso_local i32 @main() #0 {
  %1 = alloca i32, align 4
  %2 = alloca i32, align 4
  %3 = alloca i32, align 4
  %4 = alloca [1000 x i32], align 16
  %5 = alloca i32, align 4
  %6 = alloca i32, align 4
  %7 = alloca i32, align 4
  %8 = alloca i32, align 4
  %9 = alloca i32, align 4
  %10 = alloca i32, align 4
  %11 = alloca i32, align 4
  %12 = alloca i32, align 4
  store i32 0, i32* %1, align 4
  %13 = call i32 (i8*, ...) @__isoc99_scanf(i8* getelementptr inbounds ([6 x i8], [6 x i8]* @.str, i64 0, i64 0), i32* %2, i32* %3)
  store i32 0, i32* %5, align 4
  br label %14

14:                                               ; preds = %18, %0
  %15 = load i32, i32* %5, align 4
  %16 = load i32, i32* %2, align 4
  %17 = icmp slt i32 %15, %16
  br i1 %17, label %18, label %25

18:                                               ; preds = %14
  %19 = load i32, i32* %5, align 4
  %20 = sext i32 %19 to i64
  %21 = getelementptr inbounds [1000 x i32], [1000 x i32]* %4, i64 0, i64 %20
  %22 = call i32 (i8*, ...) @__isoc99_scanf(i8* getelementptr inbounds ([3 x i8], [3 x i8]* @.str.1, i64 0, i64 0), i32* %21)
  %23 = load i32, i32* %5, align 4
  %24 = add nsw i32 %23, 1
  store i32 %24, i32* %5, align 4
  br label %14

25:                                               ; preds = %14
  store i32 1, i32* %7, align 4
  br label %26

26:                                               ; preds = %71, %25
  %27 = load i32, i32* %7, align 4
  %28 = load i32, i32* %2, align 4
  %29 = icmp sle i32 %27, %28
  br i1 %29, label %30, label %74

30:                                               ; preds = %26
  store i32 0, i32* %8, align 4
  br label %31

31:                                               ; preds = %67, %30
  %32 = load i32, i32* %8, align 4
  %33 = load i32, i32* %2, align 4
  %34 = load i32, i32* %7, align 4
  %35 = sub nsw i32 %33, %34
  %36 = icmp slt i32 %32, %35
  br i1 %36, label %37, label %70

37:                                               ; preds = %31
  %38 = load i32, i32* %8, align 4
  %39 = sext i32 %38 to i64
  %40 = getelementptr inbounds [1000 x i32], [1000 x i32]* %4, i64 0, i64 %39
  %41 = load i32, i32* %40, align 4
  %42 = load i32, i32* %8, align 4
  %43 = add nsw i32 %42, 1
  %44 = sext i32 %43 to i64
  %45 = getelementptr inbounds [1000 x i32], [1000 x i32]* %4, i64 0, i64 %44
  %46 = load i32, i32* %45, align 4
  %47 = icmp sgt i32 %41, %46
  br i1 %47, label %48, label %66

48:                                               ; preds = %37
  %49 = load i32, i32* %8, align 4
  %50 = add nsw i32 %49, 1
  %51 = sext i32 %50 to i64
  %52 = getelementptr inbounds [1000 x i32], [1000 x i32]* %4, i64 0, i64 %51
  %53 = load i32, i32* %52, align 4
  store i32 %53, i32* %6, align 4
  %54 = load i32, i32* %8, align 4
  %55 = sext i32 %54 to i64
  %56 = getelementptr inbounds [1000 x i32], [1000 x i32]* %4, i64 0, i64 %55
  %57 = load i32, i32* %56, align 4
  %58 = load i32, i32* %8, align 4
  %59 = add nsw i32 %58, 1
  %60 = sext i32 %59 to i64
  %61 = getelementptr inbounds [1000 x i32], [1000 x i32]* %4, i64 0, i64 %60
  store i32 %57, i32* %61, align 4
  %62 = load i32, i32* %6, align 4
  %63 = load i32, i32* %8, align 4
  %64 = sext i32 %63 to i64
  %65 = getelementptr inbounds [1000 x i32], [1000 x i32]* %4, i64 0, i64 %64
  store i32 %62, i32* %65, align 4
  br label %66

66:                                               ; preds = %48, %37
  br label %67

67:                                               ; preds = %66
  %68 = load i32, i32* %8, align 4
  %69 = add nsw i32 %68, 1
  store i32 %69, i32* %8, align 4
  br label %31

70:                                               ; preds = %31
  br label %71

71:                                               ; preds = %70
  %72 = load i32, i32* %7, align 4
  %73 = add nsw i32 %72, 1
  store i32 %73, i32* %7, align 4
  br label %26

74:                                               ; preds = %26
  store i32 0, i32* %11, align 4
  %75 = load i32, i32* %2, align 4
  %76 = sub nsw i32 %75, 1
  store i32 %76, i32* %12, align 4
  br label %77

77:                                               ; preds = %106, %74
  %78 = load i32, i32* %12, align 4
  %79 = icmp sge i32 %78, 0
  br i1 %79, label %80, label %109

80:                                               ; preds = %77
  %81 = load i32, i32* %12, align 4
  %82 = sub nsw i32 %81, 1
  store i32 %82, i32* %10, align 4
  br label %83

83:                                               ; preds = %102, %80
  %84 = load i32, i32* %10, align 4
  %85 = icmp sge i32 %84, 0
  br i1 %85, label %86, label %105

86:                                               ; preds = %83
  %87 = load i32, i32* %3, align 4
  %88 = load i32, i32* %12, align 4
  %89 = sext i32 %88 to i64
  %90 = getelementptr inbounds [1000 x i32], [1000 x i32]* %4, i64 0, i64 %89
  %91 = load i32, i32* %90, align 4
  %92 = load i32, i32* %10, align 4
  %93 = sext i32 %92 to i64
  %94 = getelementptr inbounds [1000 x i32], [1000 x i32]* %4, i64 0, i64 %93
  %95 = load i32, i32* %94, align 4
  %96 = add nsw i32 %91, %95
  %97 = icmp eq i32 %87, %96
  br i1 %97, label %98, label %101

98:                                               ; preds = %86
  %99 = load i32, i32* %11, align 4
  %100 = add nsw i32 %99, 1
  store i32 %100, i32* %11, align 4
  br label %101

101:                                              ; preds = %98, %86
  br label %102

102:                                              ; preds = %101
  %103 = load i32, i32* %10, align 4
  %104 = add nsw i32 %103, -1
  store i32 %104, i32* %10, align 4
  br label %83

105:                                              ; preds = %83
  br label %106

106:                                              ; preds = %105
  %107 = load i32, i32* %12, align 4
  %108 = add nsw i32 %107, -1
  store i32 %108, i32* %12, align 4
  br label %77

109:                                              ; preds = %77
  %110 = load i32, i32* %11, align 4
  %111 = icmp eq i32 %110, 0
  br i1 %111, label %112, label %114

112:                                              ; preds = %109
  %113 = call i32 (i8*, ...) @printf(i8* getelementptr inbounds ([3 x i8], [3 x i8]* @.str.2, i64 0, i64 0))
  br label %116

114:                                              ; preds = %109
  %115 = call i32 (i8*, ...) @printf(i8* getelementptr inbounds ([4 x i8], [4 x i8]* @.str.3, i64 0, i64 0))
  br label %116

116:                                              ; preds = %114, %112
  ret i32 0
}

declare dso_local i32 @__isoc99_scanf(i8*, ...) #1

declare dso_local i32 @printf(i8*, ...) #1


!llvm.module.flags = !{!0}
!llvm.ident = !{!1}

!0 = !{i32 1, !"wchar_size", i32 4}
!1 = !{!"clang version 10.0.0-4ubuntu1 "}
